; ModuleID = '30/2025.c'
source_filename = "30/2025.c"
target datalayout = "e-m:e-p270:32:32-p271:32:32-p272:64:64-i64:64-f80:128-n8:16:32:64-S128"
target triple = "x86_64-pc-linux-gnu"

@.str = private unnamed_addr constant [3 x i8] c"%d\00", align 1

; Function Attrs: noinline nounwind uwtable
define dso_local i32 @main() #0 {
  %1 = alloca i32, align 4
  %2 = alloca i32, align 4
  %3 = alloca i32, align 4
  %4 = alloca i32, align 4
  %5 = alloca i32, align 4
  %6 = alloca i32, align 4
  %7 = alloca i32, align 4
  store i32 0, i32* %1, align 4
  store i32 0, i32* %4, align 4
  %8 = call i32 (i8*, ...) @__isoc99_scanf(i8* getelementptr inbounds ([3 x i8], [3 x i8]* @.str, i64 0, i64 0), i32* %2)
  store i32 0, i32* %3, align 4
  br label %9

9:                                                ; preds = %50, %0
  %10 = load i32, i32* %3, align 4
  %11 = load i32, i32* %2, align 4
  %12 = icmp sle i32 %10, %11
  br i1 %12, label %13, label %53

13:                                               ; preds = %9
  %14 = load i32, i32* %3, align 4
  %15 = srem i32 %14, 7
  %16 = icmp ne i32 %15, 0
  br i1 %16, label %17, label %49

17:                                               ; preds = %13
  store i32 0, i32* %7, align 4
  %18 = load i32, i32* %3, align 4
  store i32 %18, i32* %5, align 4
  br label %19

19:                                               ; preds = %35, %17
  %20 = load i32, i32* %5, align 4
  %21 = icmp sgt i32 %20, 0
  br i1 %21, label %22, label %38

22:                                               ; preds = %19
  %23 = load i32, i32* %5, align 4
  %24 = sub nsw i32 %23, 7
  %25 = srem i32 %24, 10
  %26 = icmp ne i32 %25, 0
  br i1 %26, label %27, label %28

27:                                               ; preds = %22
  br label %35

28:                                               ; preds = %22
  %29 = load i32, i32* %5, align 4
  %30 = sub nsw i32 %29, 7
  %31 = srem i32 %30, 10
  %32 = icmp eq i32 %31, 0
  br i1 %32, label %33, label %34

33:                                               ; preds = %28
  store i32 1, i32* %7, align 4
  br label %38

34:                                               ; preds = %28
  br label %35

35:                                               ; preds = %34, %27
  %36 = load i32, i32* %5, align 4
  %37 = sdiv i32 %36, 10
  store i32 %37, i32* %5, align 4
  br label %19

38:                                               ; preds = %33, %19
  %39 = load i32, i32* %7, align 4
  %40 = icmp ne i32 %39, 1
  br i1 %40, label %41, label %48

41:                                               ; preds = %38
  %42 = load i32, i32* %3, align 4
  %43 = load i32, i32* %3, align 4
  %44 = mul nsw i32 %42, %43
  store i32 %44, i32* %6, align 4
  %45 = load i32, i32* %6, align 4
  %46 = load i32, i32* %4, align 4
  %47 = add nsw i32 %46, %45
  store i32 %47, i32* %4, align 4
  br label %48

48:                                               ; preds = %41, %38
  br label %49

49:                                               ; preds = %48, %13
  br label %50

50:                                               ; preds = %49
  %51 = load i32, i32* %3, align 4
  %52 = add nsw i32 %51, 1
  store i32 %52, i32* %3, align 4
  br label %9

53:                                               ; preds = %9
  %54 = load i32, i32* %4, align 4
  %55 = call i32 (i8*, ...) @printf(i8* getelementptr inbounds ([3 x i8], [3 x i8]* @.str, i64 0, i64 0), i32 %54)
  ret i32 0
}

declare dso_local i32 @__isoc99_scanf(i8*, ...) #1

declare dso_local i32 @printf(i8*, ...) #1


!llvm.module.flags = !{!0}
!llvm.ident = !{!1}

!0 = !{i32 1, !"wchar_size", i32 4}
!1 = !{!"clang version 10.0.0-4ubuntu1 "}
